; Function Attrs: mustprogress uwtable
define internal fastcc noundef zeroext i1 @_ZN32pxrInternal_v0_24__pxrReserved__L8_IsCloseINS_10GfMatrix4dEEEbRKNS_7VtArrayIT_EES6_(ptr noundef nonnull align 8 dereferenceable(40) %0, ptr noundef nonnull align 8 dereferenceable(40) %1) unnamed_addr #0 {
  %3 = tail call noundef i64 @_ZNK32pxrInternal_v0_24__pxrReserved__7VtArrayINS_10GfMatrix4dEE4sizeEv(ptr noundef nonnull align 8 dereferenceable(40) %0)
  %4 = tail call noundef i64 @_ZNK32pxrInternal_v0_24__pxrReserved__7VtArrayINS_10GfMatrix4dEE4sizeEv(ptr noundef nonnull align 8 dereferenceable(40) %1)
  %.not = icmp eq i64 %3, %4
  br i1 %.not, label %.preheader, label %_ZN32pxrInternal_v0_24__pxrReserved__L8_IsCloseINS_10GfMatrix4dETnPNSt9enable_ifIXsr12GfIsGfMatrixIT_EE5valueEvE4typeELPv0EEEbRKS3_S9_.exit

.preheader:                                       ; preds = %2
  %5 = tail call noundef i64 @_ZNK32pxrInternal_v0_24__pxrReserved__7VtArrayINS_10GfMatrix4dEE4sizeEv(ptr noundef nonnull align 8 dereferenceable(40) %0)
  %.not12 = icmp eq i64 %5, 0
  br i1 %.not12, label %_ZN32pxrInternal_v0_24__pxrReserved__L8_IsCloseINS_10GfMatrix4dETnPNSt9enable_ifIXsr12GfIsGfMatrixIT_EE5valueEvE4typeELPv0EEEbRKS3_S9_.exit, label %.lr.ph

.lr.ph:                                           ; preds = %.preheader, %21
  %.011 = phi i64 [ %22, %21 ], [ 0, %.preheader ]
  %6 = tail call noundef nonnull align 8 dereferenceable(128) ptr @_ZNK32pxrInternal_v0_24__pxrReserved__7VtArrayINS_10GfMatrix4dEEixEm(ptr noundef nonnull align 8 dereferenceable(40) %0, i64 noundef %.011)
  %7 = tail call noundef nonnull align 8 dereferenceable(128) ptr @_ZNK32pxrInternal_v0_24__pxrReserved__7VtArrayINS_10GfMatrix4dEEixEm(ptr noundef nonnull align 8 dereferenceable(40) %1, i64 noundef %.011)
  br label %.preheader.i

.preheader.i:                                     ; preds = %19, %.lr.ph
  %.01016.i = phi i64 [ 0, %.lr.ph ], [ %20, %19 ]
  %8 = shl nuw nsw i64 %.01016.i, 2
  %9 = getelementptr inbounds nuw double, ptr %6, i64 %8
  %10 = getelementptr inbounds nuw double, ptr %7, i64 %8
  br label %13

11:                                               ; preds = %13
  %12 = add nuw nsw i64 %.015.i, 1
  %exitcond.not.i = icmp eq i64 %12, 4
  br i1 %exitcond.not.i, label %19, label %13, !llvm.loop !4

13:                                               ; preds = %11, %.preheader.i
  %.015.i = phi i64 [ 0, %.preheader.i ], [ %12, %11 ]
  %14 = getelementptr inbounds nuw double, ptr %9, i64 %.015.i
  %15 = getelementptr inbounds nuw double, ptr %10, i64 %.015.i
  %.val.i = load double, ptr %14, align 8
  %.val12.i = load double, ptr %15, align 8
  %16 = fsub double %.val.i, %.val12.i
  %17 = tail call double @llvm.fabs.f64(double %16)
  %18 = fcmp olt double %17, 0x3D719799812DEA11
  br i1 %18, label %11, label %_ZN32pxrInternal_v0_24__pxrReserved__L8_IsCloseINS_10GfMatrix4dETnPNSt9enable_ifIXsr12GfIsGfMatrixIT_EE5valueEvE4typeELPv0EEEbRKS3_S9_.exit

19:                                               ; preds = %11
  %20 = add nuw nsw i64 %.01016.i, 1
  %exitcond19.i = icmp eq i64 %20, 4
  br i1 %exitcond19.i, label %21, label %.preheader.i, !llvm.loop !6

21:                                               ; preds = %19
  %22 = add nuw i64 %.011, 1
  %23 = tail call noundef i64 @_ZNK32pxrInternal_v0_24__pxrReserved__7VtArrayINS_10GfMatrix4dEE4sizeEv(ptr noundef nonnull align 8 dereferenceable(40) %0)
  %24 = icmp ult i64 %22, %23
  br i1 %24, label %.lr.ph, label %_ZN32pxrInternal_v0_24__pxrReserved__L8_IsCloseINS_10GfMatrix4dETnPNSt9enable_ifIXsr12GfIsGfMatrixIT_EE5valueEvE4typeELPv0EEEbRKS3_S9_.exit, !llvm.loop !22

_ZN32pxrInternal_v0_24__pxrReserved__L8_IsCloseINS_10GfMatrix4dETnPNSt9enable_ifIXsr12GfIsGfMatrixIT_EE5valueEvE4typeELPv0EEEbRKS3_S9_.exit: ; preds = %21, %13, %.preheader, %2
  %.09 = phi i1 [ false, %2 ], [ true, %.preheader ], [ false, %13 ], [ true, %21 ]
  ret i1 %.09
}